; Function Attrs: mustprogress nofree norecurse nosync nounwind willreturn memory(read, argmem: readwrite, inaccessiblemem: none) uwtable
define dso_local range(i32 -30, 1) i32 @onig_get_capture_range_in_callout(ptr noundef readonly captures(none) %0, i32 noundef %1, ptr noundef writeonly captures(none) %2, ptr noundef writeonly captures(none) %3) local_unnamed_addr #22 {
  %5 = getelementptr inbounds nuw i8, ptr %0, i64 16
  %6 = load ptr, ptr %5, align 8, !tbaa !156
  %7 = getelementptr inbounds nuw i8, ptr %0, i64 24
  %8 = load ptr, ptr %7, align 8, !tbaa !157
  %9 = getelementptr inbounds nuw i8, ptr %0, i64 80
  %10 = load ptr, ptr %9, align 8, !tbaa !163
  %11 = getelementptr inbounds nuw i8, ptr %0, i64 96
  %12 = load ptr, ptr %11, align 8, !tbaa !165
  %13 = icmp sgt i32 %1, 0
  br i1 %13, label %14, label %49

14:                                               ; preds = %4
  %15 = getelementptr inbounds nuw i8, ptr %0, i64 104
  %16 = load ptr, ptr %15, align 8, !tbaa !166
  %17 = zext nneg i32 %1 to i64
  %18 = getelementptr inbounds nuw %union.StkPtrType, ptr %16, i64 %17
  %19 = load i64, ptr %18, align 8, !tbaa !56
  %.not = icmp eq i64 %19, -1
  br i1 %.not, label %48, label %20

20:                                               ; preds = %14
  %21 = icmp samesign ult i32 %1, 32
  %22 = getelementptr inbounds nuw i8, ptr %6, i64 68
  %23 = load i32, ptr %22, align 4, !tbaa !112
  %24 = shl nuw i32 1, %1
  %.sink = select i1 %21, i32 %24, i32 1
  %25 = and i32 %23, %.sink
  %.not34 = icmp eq i32 %25, 0
  %26 = getelementptr inbounds nuw %union.StkPtrType, ptr %12, i64 %17
  br i1 %.not34, label %30, label %27

27:                                               ; preds = %20
  %28 = load i64, ptr %26, align 8, !tbaa !56
  %29 = getelementptr inbounds %struct._StackType, ptr %10, i64 %28, i32 2
  br label %30

30:                                               ; preds = %20, %27
  %.in = phi ptr [ %29, %27 ], [ %26, %20 ]
  %31 = load ptr, ptr %.in, align 8, !tbaa !56
  %32 = ptrtoint ptr %31 to i64
  %33 = ptrtoint ptr %8 to i64
  %34 = sub i64 %32, %33
  %35 = trunc i64 %34 to i32
  store i32 %35, ptr %2, align 4, !tbaa !24
  %36 = getelementptr inbounds nuw i8, ptr %6, i64 72
  %37 = load i32, ptr %36, align 8, !tbaa !113
  %38 = shl nuw i32 1, %1
  %.sink37 = select i1 %21, i32 %38, i32 1
  %39 = and i32 %37, %.sink37
  %.not35 = icmp eq i32 %39, 0
  br i1 %.not35, label %43, label %40

40:                                               ; preds = %30
  %41 = load i64, ptr %18, align 8, !tbaa !56
  %42 = getelementptr inbounds %struct._StackType, ptr %10, i64 %41, i32 2
  br label %43

43:                                               ; preds = %30, %40
  %.in36 = phi ptr [ %42, %40 ], [ %18, %30 ]
  %44 = load ptr, ptr %.in36, align 8, !tbaa !56
  %45 = ptrtoint ptr %44 to i64
  %46 = sub i64 %45, %33
  %47 = trunc i64 %46 to i32
  store i32 %47, ptr %3, align 4, !tbaa !24
  br label %49

48:                                               ; preds = %14
  store i32 -1, ptr %3, align 4, !tbaa !24
  store i32 -1, ptr %2, align 4, !tbaa !24
  br label %49

49:                                               ; preds = %48, %43, %4
  %.0 = phi i32 [ -30, %4 ], [ 0, %43 ], [ 0, %48 ]
  ret i32 %.0
}